; Function Attrs: mustprogress uwtable
define noundef range(i32 -1, 1) i32 @_ZN3zmq5msg_t4copyERS0_(ptr noundef nonnull align 8 captures(none) dereferenceable(64) %0, ptr noundef nonnull align 8 captures(none) dereferenceable(64) %1) local_unnamed_addr #1 align 2 personality ptr @__gxx_personality_v0 {
  %3 = getelementptr inbounds nuw i8, ptr %1, i64 42
  %4 = load i8, ptr %3, align 2, !tbaa !3
  %5 = add i8 %4, -101
  %spec.select.i = icmp ult i8 %5, 7
  br i1 %spec.select.i, label %8, label %6, !prof !23

6:                                                ; preds = %2
  %7 = tail call ptr @__errno_location() #22
  store i32 14, ptr %7, align 4, !tbaa !22
  br label %51

8:                                                ; preds = %2
  %9 = tail call noundef i32 @_ZN3zmq5msg_t5closeEv(ptr noundef nonnull align 8 dereferenceable(64) %0)
  %10 = icmp slt i32 %9, 0
  br i1 %10, label %51, label %11, !prof !6

11:                                               ; preds = %8
  %12 = load i8, ptr %3, align 2, !tbaa !3
  switch i8 %12, label %38 [
    i8 102, label %13
    i8 105, label %13
  ]

13:                                               ; preds = %11, %11
  %14 = getelementptr inbounds nuw i8, ptr %1, i64 43
  %15 = load i8, ptr %14, align 1, !tbaa !3
  %.not = icmp sgt i8 %15, -1
  br i1 %.not, label %31, label %16

16:                                               ; preds = %13
  switch i8 %12, label %25 [
    i8 102, label %17
    i8 105, label %21
  ]

17:                                               ; preds = %16
  %18 = getelementptr inbounds nuw i8, ptr %1, i64 8
  %19 = load ptr, ptr %18, align 8, !tbaa !3
  %20 = getelementptr inbounds nuw i8, ptr %19, i64 32
  br label %_ZN3zmq5msg_t6refcntEv.exit

21:                                               ; preds = %16
  %22 = getelementptr inbounds nuw i8, ptr %1, i64 8
  %23 = load ptr, ptr %22, align 8, !tbaa !3
  %24 = getelementptr inbounds nuw i8, ptr %23, i64 32
  br label %_ZN3zmq5msg_t6refcntEv.exit

25:                                               ; preds = %16
  %26 = load ptr, ptr @stderr, align 8, !tbaa !7
  %27 = tail call i32 (ptr, ptr, ...) @fprintf(ptr noundef %26, ptr noundef nonnull @.str, ptr noundef nonnull @.str.7, ptr noundef nonnull @.str.2, i32 noundef 695) #20
  %28 = load ptr, ptr @stderr, align 8, !tbaa !7
  %29 = tail call i32 @fflush(ptr noundef %28)
  tail call void @_ZN3zmq9zmq_abortEPKc(ptr noundef nonnull @.str.7)
  br label %_ZN3zmq5msg_t6refcntEv.exit

_ZN3zmq5msg_t6refcntEv.exit:                      ; preds = %17, %21, %25
  %.0.i = phi ptr [ null, %25 ], [ %24, %21 ], [ %20, %17 ]
  %30 = atomicrmw add ptr %.0.i, i32 1 acq_rel, align 4
  br label %38

31:                                               ; preds = %13
  %32 = or disjoint i8 %15, -128
  store i8 %32, ptr %14, align 1, !tbaa !3
  switch i8 %12, label %33 [
    i8 102, label %_ZN3zmq5msg_t6refcntEv.exit19
    i8 105, label %_ZN3zmq5msg_t6refcntEv.exit19
  ]

33:                                               ; preds = %31
  %34 = load ptr, ptr @stderr, align 8, !tbaa !7
  %35 = tail call i32 (ptr, ptr, ...) @fprintf(ptr noundef %34, ptr noundef nonnull @.str, ptr noundef nonnull @.str.7, ptr noundef nonnull @.str.2, i32 noundef 695) #20
  %36 = load ptr, ptr @stderr, align 8, !tbaa !7
  %37 = tail call i32 @fflush(ptr noundef %36)
  tail call void @_ZN3zmq9zmq_abortEPKc(ptr noundef nonnull @.str.7)
  unreachable

_ZN3zmq5msg_t6refcntEv.exit19:                    ; preds = %31, %31
  %.pn.in = getelementptr inbounds nuw i8, ptr %1, i64 8
  %.pn = load ptr, ptr %.pn.in, align 8, !tbaa !3
  %.0.i18 = getelementptr inbounds nuw i8, ptr %.pn, i64 32
  store atomic i32 2, ptr %.0.i18 seq_cst, align 4
  br label %38

38:                                               ; preds = %11, %_ZN3zmq5msg_t6refcntEv.exit, %_ZN3zmq5msg_t6refcntEv.exit19
  %39 = load ptr, ptr %1, align 8, !tbaa !3
  %.not17 = icmp eq ptr %39, null
  br i1 %.not17, label %41, label %40

40:                                               ; preds = %38
  tail call void @_ZN3zmq10metadata_t7add_refEv(ptr noundef nonnull align 8 dereferenceable(56) %39)
  br label %41

41:                                               ; preds = %40, %38
  %42 = getelementptr inbounds nuw i8, ptr %1, i64 48
  %43 = load i8, ptr %42, align 8, !tbaa !3
  %44 = icmp eq i8 %43, 1
  br i1 %44, label %45, label %50

45:                                               ; preds = %41
  %46 = getelementptr inbounds nuw i8, ptr %1, i64 56
  %47 = load ptr, ptr %46, align 8, !tbaa !3
  %48 = getelementptr inbounds nuw i8, ptr %47, i64 256
  %49 = atomicrmw add ptr %48, i32 1 acq_rel, align 4
  br label %50

50:                                               ; preds = %45, %41
  tail call void @llvm.memcpy.p0.p0.i64(ptr noundef nonnull align 8 dereferenceable(64) %0, ptr noundef nonnull align 8 dereferenceable(64) %1, i64 64, i1 false), !tbaa.struct !29
  br label %51

51:                                               ; preds = %50, %8, %6
  %.0 = phi i32 [ -1, %6 ], [ 0, %50 ], [ -1, %8 ]
  ret i32 %.0
}